target datalayout = "e-m:e-p270:32:32-p271:32:32-p272:64:64-i64:64-i128:128-f80:128-n8:16:32:64-S128"
target triple = "x86_64-pc-linux-gnu"

%struct.Int128_ = type { i64, i64 }

; Function Attrs: nounwind uwtable
define dso_local { i64, i64 } @i128_from_int(i64 noundef %0) #0 {
  %2 = alloca %struct.Int128_, align 8
  %3 = alloca i64, align 8
  store i64 %0, ptr %3, align 8
  %4 = getelementptr inbounds %struct.Int128_, ptr %2, i32 0, i32 0
  store i64 0, ptr %4, align 8
  %5 = getelementptr inbounds %struct.Int128_, ptr %2, i32 0, i32 1
  %6 = load i64, ptr %3, align 8
  store i64 %6, ptr %5, align 8
  %7 = load { i64, i64 }, ptr %2, align 8
  ret { i64, i64 } %7
}

; Function Attrs: nounwind uwtable
define dso_local { i64, i64 } @i128_from_double(double noundef %0) #0 {
  %2 = alloca %struct.Int128_, align 8
  %3 = alloca double, align 8
  %4 = alloca i64, align 8
  %5 = alloca i64, align 8
  store double %0, ptr %3, align 8
  %6 = load double, ptr %3, align 8
  %7 = call double @ldexp(double noundef 1.000000e+00, i32 noundef 64) #7
  %8 = fcmp oge double %6, %7
  br i1 %8, label %9, label %23

9:                                                ; preds = %1
  %10 = load double, ptr %3, align 8
  %11 = call double @ldexp(double noundef %10, i32 noundef -64) #7
  %12 = fptoui double %11 to i64
  store i64 %12, ptr %4, align 8
  %13 = load double, ptr %3, align 8
  %14 = load i64, ptr %4, align 8
  %15 = uitofp i64 %14 to double
  %16 = call double @ldexp(double noundef %15, i32 noundef 64) #7
  %17 = fsub double %13, %16
  %18 = fptoui double %17 to i64
  store i64 %18, ptr %5, align 8
  %19 = getelementptr inbounds %struct.Int128_, ptr %2, i32 0, i32 0
  %20 = load i64, ptr %4, align 8
  store i64 %20, ptr %19, align 8
  %21 = getelementptr inbounds %struct.Int128_, ptr %2, i32 0, i32 1
  %22 = load i64, ptr %5, align 8
  store i64 %22, ptr %21, align 8
  br label %31

23:                                               ; preds = %1
  %24 = load double, ptr %3, align 8
  %25 = fptoui double %24 to i64
  %26 = call { i64, i64 } @i128_from_int(i64 noundef %25)
  %27 = getelementptr inbounds { i64, i64 }, ptr %2, i32 0, i32 0
  %28 = extractvalue { i64, i64 } %26, 0
  store i64 %28, ptr %27, align 8
  %29 = getelementptr inbounds { i64, i64 }, ptr %2, i32 0, i32 1
  %30 = extractvalue { i64, i64 } %26, 1
  store i64 %30, ptr %29, align 8
  br label %31

31:                                               ; preds = %23, %9
  %32 = load { i64, i64 }, ptr %2, align 8
  ret { i64, i64 } %32
}