; Function Attrs: mustprogress nofree nounwind willreturn uwtable
define dso_local { i64, i64 } @i128_from_double(double noundef %0) local_unnamed_addr #10 {
  %2 = tail call double @ldexp(double noundef 1.000000e+00, i32 noundef 64) #19
  %3 = fcmp ult double %0, %2
  br i1 %3, label %10, label %4

4:                                                ; preds = %1
  %5 = tail call double @ldexp(double noundef %0, i32 noundef -64) #19
  %6 = fptoui double %5 to i64
  %7 = uitofp i64 %6 to double
  %8 = tail call double @ldexp(double noundef %7, i32 noundef 64) #19
  %9 = fsub double %0, %8
  br label %10

10:                                               ; preds = %1, %4
  %.sroa.0.0 = phi i64 [ %6, %4 ], [ 0, %1 ]
  %.sroa.3.0.in = phi double [ %9, %4 ], [ %0, %1 ]
  %.sroa.3.0 = fptoui double %.sroa.3.0.in to i64
  %.fca.0.insert = insertvalue { i64, i64 } poison, i64 %.sroa.0.0, 0
  %.fca.1.insert = insertvalue { i64, i64 } %.fca.0.insert, i64 %.sroa.3.0, 1
  ret { i64, i64 } %.fca.1.insert
}